target datalayout = "e-m:e-p270:32:32-p271:32:32-p272:64:64-i64:64-i128:128-f80:128-n8:16:32:64-S128"
target triple = "x86_64-pc-linux-gnu"

%"struct.std::_Vector_base.1" = type { %"struct.std::_Vector_base<int, std::allocator<int>>::_Vector_impl" }
%"struct.std::_Vector_base<int, std::allocator<int>>::_Vector_impl" = type { %"struct.std::_Vector_base<int, std::allocator<int>>::_Vector_impl_data" }
%"struct.std::_Vector_base<int, std::allocator<int>>::_Vector_impl_data" = type { ptr, ptr, ptr }
%"class.xgboost::RegTree" = type { %"struct.xgboost::Model", %"struct.xgboost::TreeParam", %"class.std::vector.12", %"class.std::vector.0", %"class.std::vector.17", %"class.std::vector.22", %"class.std::vector.27", %"class.std::vector.32", %"class.xgboost::CopyUniquePtr" }
%"struct.xgboost::Model" = type { ptr }
%"struct.xgboost::TreeParam" = type { i32, i32, i32, i32, i32, i32, [31 x i32] }
%"class.std::vector.12" = type { %"struct.std::_Vector_base.13" }
%"struct.std::_Vector_base.13" = type { %"struct.std::_Vector_base<xgboost::RegTree::Node, std::allocator<xgboost::RegTree::Node>>::_Vector_impl" }
%"struct.std::_Vector_base<xgboost::RegTree::Node, std::allocator<xgboost::RegTree::Node>>::_Vector_impl" = type { %"struct.std::_Vector_base<xgboost::RegTree::Node, std::allocator<xgboost::RegTree::Node>>::_Vector_impl_data" }
%"struct.std::_Vector_base<xgboost::RegTree::Node, std::allocator<xgboost::RegTree::Node>>::_Vector_impl_data" = type { ptr, ptr, ptr }
%"class.std::vector.0" = type { %"struct.std::_Vector_base.1" }
%"class.std::vector.17" = type { %"struct.std::_Vector_base.18" }
%"struct.std::_Vector_base.18" = type { %"struct.std::_Vector_base<xgboost::RTreeNodeStat, std::allocator<xgboost::RTreeNodeStat>>::_Vector_impl" }
%"struct.std::_Vector_base<xgboost::RTreeNodeStat, std::allocator<xgboost::RTreeNodeStat>>::_Vector_impl" = type { %"struct.std::_Vector_base<xgboost::RTreeNodeStat, std::allocator<xgboost::RTreeNodeStat>>::_Vector_impl_data" }
%"struct.std::_Vector_base<xgboost::RTreeNodeStat, std::allocator<xgboost::RTreeNodeStat>>::_Vector_impl_data" = type { ptr, ptr, ptr }
%"class.std::vector.22" = type { %"struct.std::_Vector_base.23" }
%"struct.std::_Vector_base.23" = type { %"struct.std::_Vector_base<xgboost::FeatureType, std::allocator<xgboost::FeatureType>>::_Vector_impl" }
%"struct.std::_Vector_base<xgboost::FeatureType, std::allocator<xgboost::FeatureType>>::_Vector_impl" = type { %"struct.std::_Vector_base<xgboost::FeatureType, std::allocator<xgboost::FeatureType>>::_Vector_impl_data" }
%"struct.std::_Vector_base<xgboost::FeatureType, std::allocator<xgboost::FeatureType>>::_Vector_impl_data" = type { ptr, ptr, ptr }
%"class.std::vector.27" = type { %"struct.std::_Vector_base.28" }
%"struct.std::_Vector_base.28" = type { %"struct.std::_Vector_base<unsigned int, std::allocator<unsigned int>>::_Vector_impl" }
%"struct.std::_Vector_base<unsigned int, std::allocator<unsigned int>>::_Vector_impl" = type { %"struct.std::_Vector_base<unsigned int, std::allocator<unsigned int>>::_Vector_impl_data" }
%"struct.std::_Vector_base<unsigned int, std::allocator<unsigned int>>::_Vector_impl_data" = type { ptr, ptr, ptr }
%"class.std::vector.32" = type { %"struct.std::_Vector_base.33" }
%"struct.std::_Vector_base.33" = type { %"struct.std::_Vector_base<xgboost::RegTree::CategoricalSplitMatrix::Segment, std::allocator<xgboost::RegTree::CategoricalSplitMatrix::Segment>>::_Vector_impl" }
%"struct.std::_Vector_base<xgboost::RegTree::CategoricalSplitMatrix::Segment, std::allocator<xgboost::RegTree::CategoricalSplitMatrix::Segment>>::_Vector_impl" = type { %"struct.std::_Vector_base<xgboost::RegTree::CategoricalSplitMatrix::Segment, std::allocator<xgboost::RegTree::CategoricalSplitMatrix::Segment>>::_Vector_impl_data" }
%"struct.std::_Vector_base<xgboost::RegTree::CategoricalSplitMatrix::Segment, std::allocator<xgboost::RegTree::CategoricalSplitMatrix::Segment>>::_Vector_impl_data" = type { ptr, ptr, ptr }
%"class.xgboost::CopyUniquePtr" = type { %"class.std::unique_ptr.37" }
%"class.std::unique_ptr.37" = type { %"struct.std::__uniq_ptr_data.38" }
%"struct.std::__uniq_ptr_data.38" = type { %"class.std::__uniq_ptr_impl.39" }
%"class.std::__uniq_ptr_impl.39" = type { %"class.std::tuple.40" }
%"class.std::tuple.40" = type { %"struct.std::_Tuple_impl.41" }
%"struct.std::_Tuple_impl.41" = type { %"struct.std::_Head_base.44" }
%"struct.std::_Head_base.44" = type { ptr }
%"class.xgboost::RegTree::Node" = type { i32, i32, i32, i32, %"union.xgboost::RegTree::Node::Info" }
%"union.xgboost::RegTree::Node::Info" = type { float }
%"struct.std::_Vector_base.81" = type { %"struct.std::_Vector_base<float, std::allocator<float>>::_Vector_impl" }
%"struct.std::_Vector_base<float, std::allocator<float>>::_Vector_impl" = type { %"struct.std::_Vector_base<float, std::allocator<float>>::_Vector_impl_data" }
%"struct.std::_Vector_base<float, std::allocator<float>>::_Vector_impl_data" = type { ptr, ptr, ptr }
%"struct.xgboost::RTreeNodeStat" = type { float, float, float, i32 }

; Function Attrs: mustprogress nounwind uwtable
define linkonce_odr noundef nonnull align 4 dereferenceable(16) ptr @_ZNKSt6vectorIN7xgboost13RTreeNodeStatESaIS1_EEixEm(ptr noundef nonnull align 8 dereferenceable(24) %0, i64 noundef %1) #4 comdat align 2 {
  %3 = alloca ptr, align 8
  %4 = alloca i64, align 8
  store ptr %0, ptr %3, align 8
  store i64 %1, ptr %4, align 8
  %5 = load ptr, ptr %3, align 8
  %6 = getelementptr inbounds %"struct.std::_Vector_base.18", ptr %5, i32 0, i32 0
  %7 = getelementptr inbounds %"struct.std::_Vector_base<xgboost::RTreeNodeStat, std::allocator<xgboost::RTreeNodeStat>>::_Vector_impl_data", ptr %6, i32 0, i32 0
  %8 = load ptr, ptr %7, align 8
  %9 = load i64, ptr %4, align 8
  %10 = getelementptr inbounds %"struct.xgboost::RTreeNodeStat", ptr %8, i64 %9
  ret ptr %10
}

; Function Attrs: mustprogress nounwind uwtable
define linkonce_odr noundef nonnull align 4 dereferenceable(20) ptr @_ZNKSt6vectorIN7xgboost7RegTree4NodeESaIS2_EEixEm(ptr noundef nonnull align 8 dereferenceable(24) %0, i64 noundef %1) #4 comdat align 2 {
  %3 = alloca ptr, align 8
  %4 = alloca i64, align 8
  store ptr %0, ptr %3, align 8
  store i64 %1, ptr %4, align 8
  %5 = load ptr, ptr %3, align 8
  %6 = getelementptr inbounds %"struct.std::_Vector_base.13", ptr %5, i32 0, i32 0
  %7 = getelementptr inbounds %"struct.std::_Vector_base<xgboost::RegTree::Node, std::allocator<xgboost::RegTree::Node>>::_Vector_impl_data", ptr %6, i32 0, i32 0
  %8 = load ptr, ptr %7, align 8
  %9 = load i64, ptr %4, align 8
  %10 = getelementptr inbounds %"class.xgboost::RegTree::Node", ptr %8, i64 %9
  ret ptr %10
}

; Function Attrs: mustprogress nounwind uwtable
define linkonce_odr noundef nonnull align 4 dereferenceable(4) ptr @_ZNSt6vectorIfSaIfEEixEm(ptr noundef nonnull align 8 dereferenceable(24) %0, i64 noundef %1) #4 comdat align 2 {
  %3 = alloca ptr, align 8
  %4 = alloca i64, align 8
  store ptr %0, ptr %3, align 8
  store i64 %1, ptr %4, align 8
  %5 = load ptr, ptr %3, align 8
  %6 = getelementptr inbounds %"struct.std::_Vector_base.81", ptr %5, i32 0, i32 0
  %7 = getelementptr inbounds %"struct.std::_Vector_base<float, std::allocator<float>>::_Vector_impl_data", ptr %6, i32 0, i32 0
  %8 = load ptr, ptr %7, align 8
  %9 = load i64, ptr %4, align 8
  %10 = getelementptr inbounds float, ptr %8, i64 %9
  ret ptr %10
}

; Function Attrs: mustprogress nounwind uwtable
define linkonce_odr noundef i32 @_ZNK7xgboost7RegTree4Node10RightChildEv(ptr noundef nonnull align 4 dereferenceable(20) %0) #4 comdat align 2 {
  %2 = alloca ptr, align 8
  store ptr %0, ptr %2, align 8
  %3 = load ptr, ptr %2, align 8
  %4 = getelementptr inbounds %"class.xgboost::RegTree::Node", ptr %3, i32 0, i32 2
  %5 = load i32, ptr %4, align 4
  ret i32 %5
}

; Function Attrs: mustprogress nounwind uwtable
define linkonce_odr noundef nonnull align 4 dereferenceable(16) ptr @_ZNK7xgboost7RegTree4StatEi(ptr noundef nonnull align 8 dereferenceable(312) %0, i32 noundef %1) #4 comdat align 2 {
  %3 = alloca ptr, align 8
  %4 = alloca i32, align 4
  store ptr %0, ptr %3, align 8
  store i32 %1, ptr %4, align 4
  %5 = load ptr, ptr %3, align 8
  %6 = getelementptr inbounds %"class.xgboost::RegTree", ptr %5, i32 0, i32 4
  %7 = load i32, ptr %4, align 4
  %8 = sext i32 %7 to i64
  %9 = call noundef nonnull align 4 dereferenceable(16) ptr @_ZNKSt6vectorIN7xgboost13RTreeNodeStatESaIS1_EEixEm(ptr noundef nonnull align 8 dereferenceable(24) %6, i64 noundef %8) #3
  ret ptr %9
}

; Function Attrs: mustprogress nounwind uwtable
define linkonce_odr noundef i32 @_ZNK7xgboost7RegTree4Node9LeftChildEv(ptr noundef nonnull align 4 dereferenceable(20) %0) #4 comdat align 2 {
  %2 = alloca ptr, align 8
  store ptr %0, ptr %2, align 8
  %3 = load ptr, ptr %2, align 8
  %4 = getelementptr inbounds %"class.xgboost::RegTree::Node", ptr %3, i32 0, i32 1
  %5 = load i32, ptr %4, align 4
  ret i32 %5
}

; Function Attrs: mustprogress nounwind uwtable
define linkonce_odr noundef float @_ZNK7xgboost7RegTree4Node9LeafValueEv(ptr noundef nonnull align 4 dereferenceable(20) %0) #4 comdat align 2 {
  %2 = alloca ptr, align 8
  store ptr %0, ptr %2, align 8
  %3 = load ptr, ptr %2, align 8
  %4 = getelementptr inbounds %"class.xgboost::RegTree::Node", ptr %3, i32 0, i32 4
  %5 = load float, ptr %4, align 4
  ret float %5
}

; Function Attrs: mustprogress nounwind uwtable
define linkonce_odr noundef zeroext i1 @_ZNK7xgboost7RegTree4Node6IsLeafEv(ptr noundef nonnull align 4 dereferenceable(20) %0) #4 comdat align 2 {
  %2 = alloca ptr, align 8
  store ptr %0, ptr %2, align 8
  %3 = load ptr, ptr %2, align 8
  %4 = getelementptr inbounds %"class.xgboost::RegTree::Node", ptr %3, i32 0, i32 1
  %5 = load i32, ptr %4, align 4
  %6 = icmp eq i32 %5, -1
  ret i1 %6
}

; Function Attrs: mustprogress nounwind uwtable
define linkonce_odr noundef nonnull align 4 dereferenceable(20) ptr @_ZNK7xgboost7RegTreeixEi(ptr noundef nonnull align 8 dereferenceable(312) %0, i32 noundef %1) #4 comdat align 2 {
  %3 = alloca ptr, align 8
  %4 = alloca i32, align 4
  store ptr %0, ptr %3, align 8
  store i32 %1, ptr %4, align 4
  %5 = load ptr, ptr %3, align 8
  %6 = getelementptr inbounds %"class.xgboost::RegTree", ptr %5, i32 0, i32 2
  %7 = load i32, ptr %4, align 4
  %8 = sext i32 %7 to i64
  %9 = call noundef nonnull align 4 dereferenceable(20) ptr @_ZNKSt6vectorIN7xgboost7RegTree4NodeESaIS2_EEixEm(ptr noundef nonnull align 8 dereferenceable(24) %6, i64 noundef %8) #3
  ret ptr %9
}

; Function Attrs: mustprogress uwtable
define internal noundef float @_ZN7xgboost9predictor12_GLOBAL__N_118FillNodeMeanValuesEPKNS_7RegTreeEiPSt6vectorIfSaIfEE(ptr noundef %0, i32 noundef %1, ptr noundef %2) #5 {
  %4 = alloca ptr, align 8
  %5 = alloca i32, align 4
  %6 = alloca ptr, align 8
  %7 = alloca float, align 4
  %8 = alloca ptr, align 8
  %9 = alloca ptr, align 8
  store ptr %0, ptr %4, align 8
  store i32 %1, ptr %5, align 4
  store ptr %2, ptr %6, align 8
  %10 = load ptr, ptr %4, align 8
  %11 = load i32, ptr %5, align 4
  %12 = call noundef nonnull align 4 dereferenceable(20) ptr @_ZNK7xgboost7RegTreeixEi(ptr noundef nonnull align 8 dereferenceable(312) %10, i32 noundef %11)
  store ptr %12, ptr %8, align 8
  %13 = load ptr, ptr %6, align 8
  store ptr %13, ptr %9, align 8
  %14 = load ptr, ptr %8, align 8
  %15 = call noundef zeroext i1 @_ZNK7xgboost7RegTree4Node6IsLeafEv(ptr noundef nonnull align 4 dereferenceable(20) %14)
  br i1 %15, label %16, label %19

16:                                               ; preds = %3
  %17 = load ptr, ptr %8, align 8
  %18 = call noundef float @_ZNK7xgboost7RegTree4Node9LeafValueEv(ptr noundef nonnull align 4 dereferenceable(20) %17)
  store float %18, ptr %7, align 4
  br label %52

19:                                               ; preds = %3
  %20 = load ptr, ptr %4, align 8
  %21 = load ptr, ptr %8, align 8
  %22 = call noundef i32 @_ZNK7xgboost7RegTree4Node9LeftChildEv(ptr noundef nonnull align 4 dereferenceable(20) %21)
  %23 = load ptr, ptr %6, align 8
  %24 = call noundef float @_ZN7xgboost9predictor12_GLOBAL__N_118FillNodeMeanValuesEPKNS_7RegTreeEiPSt6vectorIfSaIfEE(ptr noundef %20, i32 noundef %22, ptr noundef %23)
  %25 = load ptr, ptr %4, align 8
  %26 = load ptr, ptr %8, align 8
  %27 = call noundef i32 @_ZNK7xgboost7RegTree4Node9LeftChildEv(ptr noundef nonnull align 4 dereferenceable(20) %26)
  %28 = call noundef nonnull align 4 dereferenceable(16) ptr @_ZNK7xgboost7RegTree4StatEi(ptr noundef nonnull align 8 dereferenceable(312) %25, i32 noundef %27)
  %29 = getelementptr inbounds %"struct.xgboost::RTreeNodeStat", ptr %28, i32 0, i32 1
  %30 = load float, ptr %29, align 4
  %31 = fmul float %24, %30
  store float %31, ptr %7, align 4
  %32 = load ptr, ptr %4, align 8
  %33 = load ptr, ptr %8, align 8
  %34 = call noundef i32 @_ZNK7xgboost7RegTree4Node10RightChildEv(ptr noundef nonnull align 4 dereferenceable(20) %33)
  %35 = load ptr, ptr %6, align 8
  %36 = call noundef float @_ZN7xgboost9predictor12_GLOBAL__N_118FillNodeMeanValuesEPKNS_7RegTreeEiPSt6vectorIfSaIfEE(ptr noundef %32, i32 noundef %34, ptr noundef %35)
  %37 = load ptr, ptr %4, align 8
  %38 = load ptr, ptr %8, align 8
  %39 = call noundef i32 @_ZNK7xgboost7RegTree4Node10RightChildEv(ptr noundef nonnull align 4 dereferenceable(20) %38)
  %40 = call noundef nonnull align 4 dereferenceable(16) ptr @_ZNK7xgboost7RegTree4StatEi(ptr noundef nonnull align 8 dereferenceable(312) %37, i32 noundef %39)
  %41 = getelementptr inbounds %"struct.xgboost::RTreeNodeStat", ptr %40, i32 0, i32 1
  %42 = load float, ptr %41, align 4
  %43 = load float, ptr %7, align 4
  %44 = call float @llvm.fmuladd.f32(float %36, float %42, float %43)
  store float %44, ptr %7, align 4
  %45 = load ptr, ptr %4, align 8
  %46 = load i32, ptr %5, align 4
  %47 = call noundef nonnull align 4 dereferenceable(16) ptr @_ZNK7xgboost7RegTree4StatEi(ptr noundef nonnull align 8 dereferenceable(312) %45, i32 noundef %46)
  %48 = getelementptr inbounds %"struct.xgboost::RTreeNodeStat", ptr %47, i32 0, i32 1
  %49 = load float, ptr %48, align 4
  %50 = load float, ptr %7, align 4
  %51 = fdiv float %50, %49
  store float %51, ptr %7, align 4
  br label %52

52:                                               ; preds = %19, %16
  %53 = load float, ptr %7, align 4
  %54 = load ptr, ptr %9, align 8
  %55 = load i32, ptr %5, align 4
  %56 = sext i32 %55 to i64
  %57 = call noundef nonnull align 4 dereferenceable(4) ptr @_ZNSt6vectorIfSaIfEEixEm(ptr noundef nonnull align 8 dereferenceable(24) %54, i64 noundef %56) #3
  store float %53, ptr %57, align 4
  %58 = load float, ptr %7, align 4
  ret float %58
}