; Function Attrs: mustprogress nofree nosync nounwind memory(readwrite, inaccessiblemem: none) uwtable
define internal fastcc noundef float @_ZN7xgboost9predictor12_GLOBAL__N_118FillNodeMeanValuesEPKNS_7RegTreeEiPSt6vectorIfSaIfEE(ptr noundef %0, i32 noundef %1, ptr noundef %2) unnamed_addr #24 {
  %4 = getelementptr inbounds i8, ptr %0, i64 160
  %5 = sext i32 %1 to i64
  %6 = load ptr, ptr %4, align 8
  %7 = getelementptr inbounds %"class.xgboost::RegTree::Node", ptr %6, i64 %5
  %8 = getelementptr inbounds i8, ptr %7, i64 4
  %9 = load i32, ptr %8, align 4
  %10 = icmp eq i32 %9, -1
  br i1 %10, label %11, label %14

11:                                               ; preds = %3
  %12 = getelementptr inbounds i8, ptr %7, i64 16
  %13 = load float, ptr %12, align 4
  br label %35

14:                                               ; preds = %3
  %15 = tail call fastcc noundef float @_ZN7xgboost9predictor12_GLOBAL__N_118FillNodeMeanValuesEPKNS_7RegTreeEiPSt6vectorIfSaIfEE(ptr noundef nonnull %0, i32 noundef %9, ptr noundef %2)
  %16 = load i32, ptr %8, align 4
  %17 = getelementptr inbounds i8, ptr %0, i64 208
  %18 = sext i32 %16 to i64
  %19 = load ptr, ptr %17, align 8
  %20 = getelementptr inbounds %"struct.xgboost::RTreeNodeStat", ptr %19, i64 %18, i32 1
  %21 = load float, ptr %20, align 4
  %22 = fmul float %15, %21
  %23 = getelementptr inbounds i8, ptr %7, i64 8
  %24 = load i32, ptr %23, align 4
  %25 = tail call fastcc noundef float @_ZN7xgboost9predictor12_GLOBAL__N_118FillNodeMeanValuesEPKNS_7RegTreeEiPSt6vectorIfSaIfEE(ptr noundef nonnull %0, i32 noundef %24, ptr noundef %2)
  %26 = load i32, ptr %23, align 4
  %27 = sext i32 %26 to i64
  %28 = load ptr, ptr %17, align 8
  %29 = getelementptr inbounds %"struct.xgboost::RTreeNodeStat", ptr %28, i64 %27, i32 1
  %30 = load float, ptr %29, align 4
  %31 = tail call float @llvm.fmuladd.f32(float %25, float %30, float %22)
  %32 = getelementptr inbounds %"struct.xgboost::RTreeNodeStat", ptr %28, i64 %5, i32 1
  %33 = load float, ptr %32, align 4
  %34 = fdiv float %31, %33
  br label %35

35:                                               ; preds = %14, %11
  %.0 = phi float [ %13, %11 ], [ %34, %14 ]
  %36 = load ptr, ptr %2, align 8
  %37 = getelementptr inbounds float, ptr %36, i64 %5
  store float %.0, ptr %37, align 4
  ret float %.0
}